target datalayout = "e-m:e-p270:32:32-p271:32:32-p272:64:64-i64:64-i128:128-f80:128-n8:16:32:64-S128"
target triple = "x86_64-pc-linux-gnu"

@crc32c_once_little = internal global i32 0, align 4
@crc32c_table_little = internal global [8 x [256 x i32]] zeroinitializer, align 16

; Function Attrs: nounwind uwtable
define dso_local i32 @crc32c_sw_little(i32 noundef %0, ptr noundef %1, i64 noundef %2) #0 {
  %4 = alloca i32, align 4
  %5 = alloca ptr, align 8
  %6 = alloca i64, align 8
  %7 = alloca ptr, align 8
  %8 = alloca i64, align 8
  store i32 %0, ptr %4, align 4, !tbaa !4
  store ptr %1, ptr %5, align 8, !tbaa !9
  store i64 %2, ptr %6, align 8, !tbaa !11
  call void @llvm.lifetime.start.p0(i64 8, ptr %7) #5
  %9 = load ptr, ptr %5, align 8, !tbaa !9
  store ptr %9, ptr %7, align 8, !tbaa !13
  %10 = call i32 @pthread_once(ptr noundef @crc32c_once_little, ptr noundef @crc32c_init_sw_little)
  %11 = load i32, ptr %4, align 4, !tbaa !4
  %12 = xor i32 %11, -1
  store i32 %12, ptr %4, align 4, !tbaa !4
  br label %13

13:                                               ; preds = %23, %3
  %14 = load i64, ptr %6, align 8, !tbaa !11
  %15 = icmp ne i64 %14, 0
  br i1 %15, label %16, label %21

16:                                               ; preds = %13
  %17 = load ptr, ptr %7, align 8, !tbaa !13
  %18 = ptrtoint ptr %17 to i64
  %19 = and i64 %18, 7
  %20 = icmp ne i64 %19, 0
  br label %21

21:                                               ; preds = %16, %13
  %22 = phi i1 [ false, %13 ], [ %20, %16 ]
  br i1 %22, label %23, label %39

23:                                               ; preds = %21
  %24 = load i32, ptr %4, align 4, !tbaa !4
  %25 = load ptr, ptr %7, align 8, !tbaa !13
  %26 = getelementptr inbounds nuw i8, ptr %25, i32 1
  store ptr %26, ptr %7, align 8, !tbaa !13
  %27 = load i8, ptr %25, align 1, !tbaa !28
  %28 = zext i8 %27 to i32
  %29 = xor i32 %24, %28
  %30 = and i32 %29, 255
  %31 = zext i32 %30 to i64
  %32 = getelementptr inbounds nuw [256 x i32], ptr @crc32c_table_little, i64 0, i64 %31
  %33 = load i32, ptr %32, align 4, !tbaa !4
  %34 = load i32, ptr %4, align 4, !tbaa !4
  %35 = lshr i32 %34, 8
  %36 = xor i32 %33, %35
  store i32 %36, ptr %4, align 4, !tbaa !4
  %37 = load i64, ptr %6, align 8, !tbaa !11
  %38 = add i64 %37, -1
  store i64 %38, ptr %6, align 8, !tbaa !11
  br label %13, !llvm.loop !29

39:                                               ; preds = %21
  %40 = load i64, ptr %6, align 8, !tbaa !11
  %41 = icmp uge i64 %40, 8
  br i1 %41, label %42, label %106

42:                                               ; preds = %39
  call void @llvm.lifetime.start.p0(i64 8, ptr %8) #5
  %43 = load i32, ptr %4, align 4, !tbaa !4
  %44 = zext i32 %43 to i64
  store i64 %44, ptr %8, align 8, !tbaa !11
  br label %45

45:                                               ; preds = %100, %42
  %46 = load ptr, ptr %7, align 8, !tbaa !13
  %47 = load i64, ptr %46, align 8, !tbaa !11
  %48 = load i64, ptr %8, align 8, !tbaa !11
  %49 = xor i64 %48, %47
  store i64 %49, ptr %8, align 8, !tbaa !11
  %50 = load i64, ptr %8, align 8, !tbaa !11
  %51 = and i64 %50, 255
  %52 = getelementptr inbounds nuw [256 x i32], ptr getelementptr inbounds ([8 x [256 x i32]], ptr @crc32c_table_little, i64 0, i64 7), i64 0, i64 %51
  %53 = load i32, ptr %52, align 4, !tbaa !4
  %54 = load i64, ptr %8, align 8, !tbaa !11
  %55 = lshr i64 %54, 8
  %56 = and i64 %55, 255
  %57 = getelementptr inbounds nuw [256 x i32], ptr getelementptr inbounds ([8 x [256 x i32]], ptr @crc32c_table_little, i64 0, i64 6), i64 0, i64 %56
  %58 = load i32, ptr %57, align 4, !tbaa !4
  %59 = xor i32 %53, %58
  %60 = load i64, ptr %8, align 8, !tbaa !11
  %61 = lshr i64 %60, 16
  %62 = and i64 %61, 255
  %63 = getelementptr inbounds nuw [256 x i32], ptr getelementptr inbounds ([8 x [256 x i32]], ptr @crc32c_table_little, i64 0, i64 5), i64 0, i64 %62
  %64 = load i32, ptr %63, align 4, !tbaa !4
  %65 = xor i32 %59, %64
  %66 = load i64, ptr %8, align 8, !tbaa !11
  %67 = lshr i64 %66, 24
  %68 = and i64 %67, 255
  %69 = getelementptr inbounds nuw [256 x i32], ptr getelementptr inbounds ([8 x [256 x i32]], ptr @crc32c_table_little, i64 0, i64 4), i64 0, i64 %68
  %70 = load i32, ptr %69, align 4, !tbaa !4
  %71 = xor i32 %65, %70
  %72 = load i64, ptr %8, align 8, !tbaa !11
  %73 = lshr i64 %72, 32
  %74 = and i64 %73, 255
  %75 = getelementptr inbounds nuw [256 x i32], ptr getelementptr inbounds ([8 x [256 x i32]], ptr @crc32c_table_little, i64 0, i64 3), i64 0, i64 %74
  %76 = load i32, ptr %75, align 4, !tbaa !4
  %77 = xor i32 %71, %76
  %78 = load i64, ptr %8, align 8, !tbaa !11
  %79 = lshr i64 %78, 40
  %80 = and i64 %79, 255
  %81 = getelementptr inbounds nuw [256 x i32], ptr getelementptr inbounds ([8 x [256 x i32]], ptr @crc32c_table_little, i64 0, i64 2), i64 0, i64 %80
  %82 = load i32, ptr %81, align 4, !tbaa !4
  %83 = xor i32 %77, %82
  %84 = load i64, ptr %8, align 8, !tbaa !11
  %85 = lshr i64 %84, 48
  %86 = and i64 %85, 255
  %87 = getelementptr inbounds nuw [256 x i32], ptr getelementptr inbounds ([8 x [256 x i32]], ptr @crc32c_table_little, i64 0, i64 1), i64 0, i64 %86
  %88 = load i32, ptr %87, align 4, !tbaa !4
  %89 = xor i32 %83, %88
  %90 = load i64, ptr %8, align 8, !tbaa !11
  %91 = lshr i64 %90, 56
  %92 = getelementptr inbounds nuw [256 x i32], ptr @crc32c_table_little, i64 0, i64 %91
  %93 = load i32, ptr %92, align 4, !tbaa !4
  %94 = xor i32 %89, %93
  %95 = zext i32 %94 to i64
  store i64 %95, ptr %8, align 8, !tbaa !11
  %96 = load ptr, ptr %7, align 8, !tbaa !13
  %97 = getelementptr inbounds i8, ptr %96, i64 8
  store ptr %97, ptr %7, align 8, !tbaa !13
  %98 = load i64, ptr %6, align 8, !tbaa !11
  %99 = sub i64 %98, 8
  store i64 %99, ptr %6, align 8, !tbaa !11
  br label %100

100:                                              ; preds = %45
  %101 = load i64, ptr %6, align 8, !tbaa !11
  %102 = icmp uge i64 %101, 8
  br i1 %102, label %45, label %103, !llvm.loop !30

103:                                              ; preds = %100
  %104 = load i64, ptr %8, align 8, !tbaa !11
  %105 = trunc i64 %104 to i32
  store i32 %105, ptr %4, align 4, !tbaa !4
  call void @llvm.lifetime.end.p0(i64 8, ptr %8) #5
  br label %106

106:                                              ; preds = %103, %39
  br label %107

107:                                              ; preds = %110, %106
  %108 = load i64, ptr %6, align 8, !tbaa !11
  %109 = icmp ne i64 %108, 0
  br i1 %109, label %110, label %126

110:                                              ; preds = %107
  %111 = load i32, ptr %4, align 4, !tbaa !4
  %112 = load ptr, ptr %7, align 8, !tbaa !13
  %113 = getelementptr inbounds nuw i8, ptr %112, i32 1
  store ptr %113, ptr %7, align 8, !tbaa !13
  %114 = load i8, ptr %112, align 1, !tbaa !28
  %115 = zext i8 %114 to i32
  %116 = xor i32 %111, %115
  %117 = and i32 %116, 255
  %118 = zext i32 %117 to i64
  %119 = getelementptr inbounds nuw [256 x i32], ptr @crc32c_table_little, i64 0, i64 %118
  %120 = load i32, ptr %119, align 4, !tbaa !4
  %121 = load i32, ptr %4, align 4, !tbaa !4
  %122 = lshr i32 %121, 8
  %123 = xor i32 %120, %122
  store i32 %123, ptr %4, align 4, !tbaa !4
  %124 = load i64, ptr %6, align 8, !tbaa !11
  %125 = add i64 %124, -1
  store i64 %125, ptr %6, align 8, !tbaa !11
  br label %107, !llvm.loop !31

126:                                              ; preds = %107
  %127 = load i32, ptr %4, align 4, !tbaa !4
  %128 = xor i32 %127, -1
  call void @llvm.lifetime.end.p0(i64 8, ptr %7) #5
  ret i32 %128
}