; Function Attrs: nounwind uwtable
define dso_local i32 @crc32c_sw_little(i32 noundef %0, ptr noundef %1, i64 noundef %2) local_unnamed_addr #2 {
  %4 = tail call i32 @pthread_once(ptr noundef nonnull @crc32c_once_little, ptr noundef nonnull @crc32c_init_sw_little) #10
  %5 = xor i32 %0, -1
  %6 = icmp ne i64 %2, 0
  %7 = ptrtoint ptr %1 to i64
  %8 = and i64 %7, 7
  %9 = icmp ne i64 %8, 0
  %10 = and i1 %6, %9
  br i1 %10, label %.lr.ph, label %._crit_edge

.lr.ph:                                           ; preds = %3, %.lr.ph
  %.02943 = phi ptr [ %11, %.lr.ph ], [ %1, %3 ]
  %.03042 = phi i64 [ %18, %.lr.ph ], [ %2, %3 ]
  %.03441 = phi i32 [ %17, %.lr.ph ], [ %5, %3 ]
  %11 = getelementptr inbounds nuw i8, ptr %.02943, i64 1
  %12 = load i8, ptr %.02943, align 1, !tbaa !24
  %.034.tr = trunc i32 %.03441 to i8
  %.narrow38 = xor i8 %12, %.034.tr
  %13 = zext i8 %.narrow38 to i64
  %14 = getelementptr inbounds nuw [256 x i32], ptr @crc32c_table_little, i64 0, i64 %13
  %15 = load i32, ptr %14, align 4, !tbaa !14
  %16 = lshr i32 %.03441, 8
  %17 = xor i32 %15, %16
  %18 = add i64 %.03042, -1
  %19 = icmp ne i64 %18, 0
  %20 = ptrtoint ptr %11 to i64
  %21 = and i64 %20, 7
  %22 = icmp ne i64 %21, 0
  %23 = select i1 %19, i1 %22, i1 false
  br i1 %23, label %.lr.ph, label %._crit_edge, !llvm.loop !25

._crit_edge:                                      ; preds = %.lr.ph, %3
  %.034.lcssa = phi i32 [ %5, %3 ], [ %17, %.lr.ph ]
  %.030.lcssa = phi i64 [ %2, %3 ], [ %18, %.lr.ph ]
  %.029.lcssa = phi ptr [ %1, %3 ], [ %11, %.lr.ph ]
  %24 = icmp ugt i64 %.030.lcssa, 7
  br i1 %24, label %.preheader, label %.loopexit

.preheader:                                       ; preds = %._crit_edge, %.preheader
  %.232 = phi i64 [ %65, %.preheader ], [ %.030.lcssa, %._crit_edge ]
  %.2 = phi ptr [ %64, %.preheader ], [ %.029.lcssa, %._crit_edge ]
  %.0.in = phi i32 [ %63, %.preheader ], [ %.034.lcssa, %._crit_edge ]
  %.0 = zext i32 %.0.in to i64
  %25 = load i64, ptr %.2, align 8, !tbaa !26
  %26 = xor i64 %25, %.0
  %27 = and i64 %26, 255
  %28 = getelementptr inbounds nuw [256 x i32], ptr getelementptr inbounds nuw (i8, ptr @crc32c_table_little, i64 7168), i64 0, i64 %27
  %29 = load i32, ptr %28, align 4, !tbaa !14
  %30 = lshr i64 %26, 8
  %31 = and i64 %30, 255
  %32 = getelementptr inbounds nuw [256 x i32], ptr getelementptr inbounds nuw (i8, ptr @crc32c_table_little, i64 6144), i64 0, i64 %31
  %33 = load i32, ptr %32, align 4, !tbaa !14
  %34 = xor i32 %33, %29
  %35 = lshr i64 %26, 16
  %36 = and i64 %35, 255
  %37 = getelementptr inbounds nuw [256 x i32], ptr getelementptr inbounds nuw (i8, ptr @crc32c_table_little, i64 5120), i64 0, i64 %36
  %38 = load i32, ptr %37, align 4, !tbaa !14
  %39 = xor i32 %34, %38
  %40 = lshr i64 %26, 24
  %41 = and i64 %40, 255
  %42 = getelementptr inbounds nuw [256 x i32], ptr getelementptr inbounds nuw (i8, ptr @crc32c_table_little, i64 4096), i64 0, i64 %41
  %43 = load i32, ptr %42, align 4, !tbaa !14
  %44 = xor i32 %39, %43
  %45 = lshr i64 %25, 32
  %46 = and i64 %45, 255
  %47 = getelementptr inbounds nuw [256 x i32], ptr getelementptr inbounds nuw (i8, ptr @crc32c_table_little, i64 3072), i64 0, i64 %46
  %48 = load i32, ptr %47, align 4, !tbaa !14
  %49 = xor i32 %44, %48
  %50 = lshr i64 %25, 40
  %51 = and i64 %50, 255
  %52 = getelementptr inbounds nuw [256 x i32], ptr getelementptr inbounds nuw (i8, ptr @crc32c_table_little, i64 2048), i64 0, i64 %51
  %53 = load i32, ptr %52, align 4, !tbaa !14
  %54 = xor i32 %49, %53
  %55 = lshr i64 %25, 48
  %56 = and i64 %55, 255
  %57 = getelementptr inbounds nuw [256 x i32], ptr getelementptr inbounds nuw (i8, ptr @crc32c_table_little, i64 1024), i64 0, i64 %56
  %58 = load i32, ptr %57, align 4, !tbaa !14
  %59 = xor i32 %54, %58
  %60 = lshr i64 %25, 56
  %61 = getelementptr inbounds nuw [256 x i32], ptr @crc32c_table_little, i64 0, i64 %60
  %62 = load i32, ptr %61, align 4, !tbaa !14
  %63 = xor i32 %59, %62
  %64 = getelementptr inbounds nuw i8, ptr %.2, i64 8
  %65 = add i64 %.232, -8
  %66 = icmp ugt i64 %65, 7
  br i1 %66, label %.preheader, label %.loopexit, !llvm.loop !28

.loopexit:                                        ; preds = %.preheader, %._crit_edge
  %.135 = phi i32 [ %.034.lcssa, %._crit_edge ], [ %63, %.preheader ]
  %.131 = phi i64 [ %.030.lcssa, %._crit_edge ], [ %65, %.preheader ]
  %.1 = phi ptr [ %.029.lcssa, %._crit_edge ], [ %64, %.preheader ]
  %.not46 = icmp eq i64 %.131, 0
  br i1 %.not46, label %._crit_edge52, label %.lr.ph51

.lr.ph51:                                         ; preds = %.loopexit, %.lr.ph51
  %.349 = phi ptr [ %67, %.lr.ph51 ], [ %.1, %.loopexit ]
  %.33348 = phi i64 [ %74, %.lr.ph51 ], [ %.131, %.loopexit ]
  %.23647 = phi i32 [ %73, %.lr.ph51 ], [ %.135, %.loopexit ]
  %67 = getelementptr inbounds nuw i8, ptr %.349, i64 1
  %68 = load i8, ptr %.349, align 1, !tbaa !24
  %.236.tr = trunc i32 %.23647 to i8
  %.narrow = xor i8 %68, %.236.tr
  %69 = zext i8 %.narrow to i64
  %70 = getelementptr inbounds nuw [256 x i32], ptr @crc32c_table_little, i64 0, i64 %69
  %71 = load i32, ptr %70, align 4, !tbaa !14
  %72 = lshr i32 %.23647, 8
  %73 = xor i32 %71, %72
  %74 = add nsw i64 %.33348, -1
  %.not = icmp eq i64 %74, 0
  br i1 %.not, label %._crit_edge52, label %.lr.ph51, !llvm.loop !29

._crit_edge52:                                    ; preds = %.lr.ph51, %.loopexit
  %.236.lcssa = phi i32 [ %.135, %.loopexit ], [ %73, %.lr.ph51 ]
  %75 = xor i32 %.236.lcssa, -1
  ret i32 %75
}